; ModuleID = 'source-C-CXX/51/5637.c'
source_filename = "source-C-CXX/51/5637.c"
target datalayout = "e-m:e-p270:32:32-p271:32:32-p272:64:64-i64:64-f80:128-n8:16:32:64-S128"
target triple = "x86_64-pc-linux-gnu"

@.str = private unnamed_addr constant [5 x i8] c"%d%d\00", align 1
@.str.1 = private unnamed_addr constant [3 x i8] c"%d\00", align 1
@.str.2 = private unnamed_addr constant [4 x i8] c"%d \00", align 1

; Function Attrs: nofree nosync nounwind sspstrong uwtable
define dso_local void @f(i32* nocapture %0, i32 %1, i32 %2, i32 %3) local_unnamed_addr #0 {
  %5 = icmp eq i32 %3, %1
  br i1 %5, label %6, label %7

6:                                                ; preds = %4, %7
  ret void

7:                                                ; preds = %4
  %8 = icmp slt i32 %3, %2
  %9 = select i1 %8, i32 %1, i32 0
  %10 = sub i32 %3, %2
  %11 = add i32 %10, %9
  %12 = sext i32 %11 to i64
  %13 = getelementptr inbounds i32, i32* %0, i64 %12
  %14 = load i32, i32* %13, align 4, !tbaa !5
  %15 = add nsw i32 %3, 1
  tail call void @f(i32* %0, i32 %1, i32 %2, i32 %15)
  %16 = sext i32 %3 to i64
  %17 = getelementptr inbounds i32, i32* %0, i64 %16
  store i32 %14, i32* %17, align 4, !tbaa !5
  br label %6
}

; Function Attrs: argmemonly mustprogress nofree nosync nounwind willreturn
declare void @llvm.lifetime.start.p0i8(i64 immarg, i8* nocapture) #1

; Function Attrs: argmemonly mustprogress nofree nosync nounwind willreturn
declare void @llvm.lifetime.end.p0i8(i64 immarg, i8* nocapture) #1

; Function Attrs: nofree nounwind sspstrong uwtable
define dso_local void @main() local_unnamed_addr #2 {
  %1 = alloca [100 x i32], align 16
  %2 = alloca i32, align 4
  %3 = alloca i32, align 4
  %4 = bitcast [100 x i32]* %1 to i8*
  call void @llvm.lifetime.start.p0i8(i64 400, i8* nonnull %4) #4
  %5 = bitcast i32* %2 to i8*
  call void @llvm.lifetime.start.p0i8(i64 4, i8* nonnull %5) #4
  %6 = bitcast i32* %3 to i8*
  call void @llvm.lifetime.start.p0i8(i64 4, i8* nonnull %6) #4
  %7 = call i32 (i8*, ...) @__isoc99_scanf(i8* getelementptr inbounds ([5 x i8], [5 x i8]* @.str, i64 0, i64 0), i32* nonnull %2, i32* nonnull %3)
  %8 = load i32, i32* %2, align 4, !tbaa !5
  %9 = icmp sgt i32 %8, 0
  br i1 %9, label %10, label %18

10:                                               ; preds = %0, %10
  %11 = phi i64 [ %14, %10 ], [ 0, %0 ]
  %12 = getelementptr inbounds [100 x i32], [100 x i32]* %1, i64 0, i64 %11
  %13 = call i32 (i8*, ...) @__isoc99_scanf(i8* getelementptr inbounds ([3 x i8], [3 x i8]* @.str.1, i64 0, i64 0), i32* nonnull %12)
  %14 = add nuw nsw i64 %11, 1
  %15 = load i32, i32* %2, align 4, !tbaa !5
  %16 = sext i32 %15 to i64
  %17 = icmp slt i64 %14, %16
  br i1 %17, label %10, label %18, !llvm.loop !9

18:                                               ; preds = %10, %0
  %19 = phi i32 [ %8, %0 ], [ %15, %10 ]
  %20 = getelementptr inbounds [100 x i32], [100 x i32]* %1, i64 0, i64 0
  %21 = load i32, i32* %3, align 4, !tbaa !5
  call void @f(i32* nonnull %20, i32 %19, i32 %21, i32 0)
  %22 = load i32, i32* %2, align 4, !tbaa !5
  %23 = icmp sgt i32 %22, 1
  br i1 %23, label %24, label %36

24:                                               ; preds = %18, %24
  %25 = phi i64 [ %29, %24 ], [ 0, %18 ]
  %26 = getelementptr inbounds [100 x i32], [100 x i32]* %1, i64 0, i64 %25
  %27 = load i32, i32* %26, align 4, !tbaa !5
  %28 = call i32 (i8*, ...) @printf(i8* nonnull dereferenceable(1) getelementptr inbounds ([4 x i8], [4 x i8]* @.str.2, i64 0, i64 0), i32 %27)
  %29 = add nuw nsw i64 %25, 1
  %30 = load i32, i32* %2, align 4, !tbaa !5
  %31 = add nsw i32 %30, -1
  %32 = sext i32 %31 to i64
  %33 = icmp slt i64 %29, %32
  br i1 %33, label %24, label %34, !llvm.loop !11

34:                                               ; preds = %24
  %35 = and i64 %29, 4294967295
  br label %36

36:                                               ; preds = %34, %18
  %37 = phi i64 [ 0, %18 ], [ %35, %34 ]
  %38 = getelementptr inbounds [100 x i32], [100 x i32]* %1, i64 0, i64 %37
  %39 = load i32, i32* %38, align 4, !tbaa !5
  %40 = call i32 (i8*, ...) @printf(i8* nonnull dereferenceable(1) getelementptr inbounds ([3 x i8], [3 x i8]* @.str.1, i64 0, i64 0), i32 %39)
  call void @llvm.lifetime.end.p0i8(i64 4, i8* nonnull %6) #4
  call void @llvm.lifetime.end.p0i8(i64 4, i8* nonnull %5) #4
  call void @llvm.lifetime.end.p0i8(i64 400, i8* nonnull %4) #4
  ret void
}

; Function Attrs: nofree nounwind
declare noundef i32 @__isoc99_scanf(i8* nocapture noundef readonly, ...) local_unnamed_addr #3

; Function Attrs: nofree nounwind
declare noundef i32 @printf(i8* nocapture noundef readonly, ...) local_unnamed_addr #3


!llvm.module.flags = !{!0, !1, !2, !3}
!llvm.ident = !{!4}

!0 = !{i32 1, !"wchar_size", i32 4}
!1 = !{i32 7, !"PIC Level", i32 2}
!2 = !{i32 7, !"PIE Level", i32 2}
!3 = !{i32 7, !"uwtable", i32 1}
!4 = !{!"clang version 13.0.0"}
!5 = !{!6, !6, i64 0}
!6 = !{!"int", !7, i64 0}
!7 = !{!"omnipotent char", !8, i64 0}
!8 = !{!"Simple C/C++ TBAA"}
!9 = distinct !{!9, !10}
!10 = !{!"llvm.loop.mustprogress"}
!11 = distinct !{!11, !10}
